 Asm_Final_Project

 Timestamp is 675ea605 (Sun Dec 15 17:48:53 2024)

 Preferred load address is 00400000

 Start         Length     Name                   Class
 0001:00000000 000026f0H .text                   CODE
 0001:000026f0 00001688H .text$mn                CODE
 0002:00000000 00000144H .rdata                  DATA
 0002:00000143 00000000H .edata                  DATA
 0002:00000144 00000199H .rdata$zzzdbg           DATA
 0003:00000000 00000c80H .data                   DATA
 0003:00000c80 000002f2H .bss                    DATA
 0004:00000000 000000e0H .idata$5                DATA
 0004:000000e0 00000028H .idata$2                DATA
 0004:00000108 00000014H .idata$3                DATA
 0004:0000011c 000000e0H .idata$4                DATA
 0004:000001fc 00000375H .idata$6                DATA
 0005:00000000 00000170H .rsrc$01                DATA
 0005:00000170 000002ccH .rsrc$02                DATA

  Address         Publics by Value              Rva+Base       Lib:Object

 0000:00000000       ___AbsoluteZero            00000000     <absolute>
 0000:00000000       ___arm64x_extra_rfe_table  00000000     <absolute>
 0000:00000000       ___arm64x_extra_rfe_table_size 00000000     <absolute>
 0000:00000000       ___arm64x_native_entrypoint 00000000     <absolute>
 0000:00000000       ___arm64x_redirection_metadata 00000000     <absolute>
 0000:00000000       ___arm64x_redirection_metadata_count 00000000     <absolute>
 0000:00000000       ___dynamic_value_reloc_table 00000000     <absolute>
 0000:00000000       ___enclave_config          00000000     <absolute>
 0000:00000000       ___guard_check_icall_a64n_fptr 00000000     <absolute>
 0000:00000000       ___guard_eh_cont_count     00000000     <absolute>
 0000:00000000       ___guard_eh_cont_table     00000000     <absolute>
 0000:00000000       ___guard_fids_count        00000000     <absolute>
 0000:00000000       ___guard_fids_table        00000000     <absolute>
 0000:00000000       ___guard_flags             00000000     <absolute>
 0000:00000000       ___guard_iat_count         00000000     <absolute>
 0000:00000000       ___guard_iat_table         00000000     <absolute>
 0000:00000000       ___guard_longjmp_count     00000000     <absolute>
 0000:00000000       ___guard_longjmp_table     00000000     <absolute>
 0000:00000000       ___hybrid_auxiliary_delayload_iat 00000000     <absolute>
 0000:00000000       ___hybrid_auxiliary_delayload_iat_copy 00000000     <absolute>
 0000:00000000       ___hybrid_auxiliary_iat    00000000     <absolute>
 0000:00000000       ___hybrid_auxiliary_iat_copy 00000000     <absolute>
 0000:00000000       ___hybrid_code_map         00000000     <absolute>
 0000:00000000       ___hybrid_code_map_count   00000000     <absolute>
 0000:00000000       ___hybrid_image_info_bitfield 00000000     <absolute>
 0000:00000000       ___safe_se_handler_count   00000000     <absolute>
 0000:00000000       ___safe_se_handler_table   00000000     <absolute>
 0000:00000000       ___volatile_metadata       00000000     <absolute>
 0000:00000000       ___x64_code_ranges_to_entry_points 00000000     <absolute>
 0000:00000000       ___x64_code_ranges_to_entry_points_count 00000000     <absolute>
 0001:00000280       _CloseFile@0               00401280 f   Irvine32:Irvine32.obj
 0001:00000287       _Clrscr@0                  00401287 f   Irvine32:Irvine32.obj
 0001:0000034c       _CreateOutputFile@0        0040134c f   Irvine32:Irvine32.obj
 0001:00000365       _Crlf@0                    00401365 f   Irvine32:Irvine32.obj
 0001:00000380       _Delay@0                   00401380 f   Irvine32:Irvine32.obj
 0001:00000389       _DumpMem@0                 00401389 f   Irvine32:Irvine32.obj
 0001:00000444       _DumpRegs@0                00401444 f   Irvine32:Irvine32.obj
 0001:0000063f       _GetCommandTail@0          0040163f f   Irvine32:Irvine32.obj
 0001:0000067c       _GetDateTime@4             0040167c f   Irvine32:Irvine32.obj
 0001:000006ae       _GetMaxXY@0                004016ae f   Irvine32:Irvine32.obj
 0001:000006dd       _GetMseconds@0             004016dd f   Irvine32:Irvine32.obj
 0001:0000073a       _GetTextColor@0            0040173a f   Irvine32:Irvine32.obj
 0001:00000765       _Gotoxy@0                  00401765 f   Irvine32:Irvine32.obj
 0001:000007bd       _IsDigit@0                 004017bd f   Irvine32:Irvine32.obj
 0001:000007ca       _MsgBox@0                  004017ca f   Irvine32:Irvine32.obj
 0001:000007e1       _MsgBoxAsk@0               004017e1 f   Irvine32:Irvine32.obj
 0001:00000800       _OpenInputFile@0           00401800 f   Irvine32:Irvine32.obj
 0001:00000819       _ParseDecimal32@0          00401819 f   Irvine32:Irvine32.obj
 0001:0000087b       _ParseInteger32@0          0040187b f   Irvine32:Irvine32.obj
 0001:00000936       _Random32@0                00401936 f   Irvine32:Irvine32.obj
 0001:00000951       _RandomRange@0             00401951 f   Irvine32:Irvine32.obj
 0001:00000966       _Randomize@0               00401966 f   Irvine32:Irvine32.obj
 0001:0000097f       _ReadChar@0                0040197f f   Irvine32:Irvine32.obj
 0001:00000995       _ReadDec@0                 00401995 f   Irvine32:Irvine32.obj
 0001:000009b0       _ReadFromFile@0            004019b0 f   Irvine32:Irvine32.obj
 0001:000009d3       _ReadHex@0                 004019d3 f   Irvine32:Irvine32.obj
 0001:00000a54       _ReadInt@0                 00401a54 f   Irvine32:Irvine32.obj
 0001:00000a6f       _ReadKey@0                 00401a6f f   Irvine32:Irvine32.obj
 0001:00000b8a       _ReadKeyFlush@0            00401b8a f   Irvine32:Irvine32.obj
 0001:00000c58       _ReadString@0              00401c58 f   Irvine32:Irvine32.obj
 0001:00000d11       _SetTextColor@0            00401d11 f   Irvine32:Irvine32.obj
 0001:00000d32       _StrLength@0               00401d32 f   Irvine32:Irvine32.obj
 0001:00000d43       _Str_compare@8             00401d43 f   Irvine32:Irvine32.obj
 0001:00000d6d       _Str_copy@8                00401d6d f   Irvine32:Irvine32.obj
 0001:00000d90       _Str_length@4              00401d90 f   Irvine32:Irvine32.obj
 0001:00000daa       _Str_trim@8                00401daa f   Irvine32:Irvine32.obj
 0001:00000dd8       _Str_ucase@4               00401dd8 f   Irvine32:Irvine32.obj
 0001:00000dfa       _WaitMsg@0                 00401dfa f   Irvine32:Irvine32.obj
 0001:00000e0c       _WriteBin@0                00401e0c f   Irvine32:Irvine32.obj
 0001:00000e19       _WriteBinB@0               00401e19 f   Irvine32:Irvine32.obj
 0001:00000e6c       _WriteChar@0               00401e6c f   Irvine32:Irvine32.obj
 0001:00000e9e       _WriteDec@0                00401e9e f   Irvine32:Irvine32.obj
 0001:00000edf       _WriteHex@0                00401edf f   Irvine32:Irvine32.obj
 0001:00000eec       _WriteHexB@0               00401eec f   Irvine32:Irvine32.obj
 0001:00000f7e       _WriteInt@0                00401f7e f   Irvine32:Irvine32.obj
 0001:00000fdf       _WriteStackFrameName@16    00401fdf f   Irvine32:Irvine32.obj
 0001:0000115f       _WriteStackFrame@12        0040215f f   Irvine32:Irvine32.obj
 0001:00001179       _WriteString@0             00402179 f   Irvine32:Irvine32.obj
 0001:000011a5       _WriteToFile@0             004021a5 f   Irvine32:Irvine32.obj
 0001:000011ba       _WriteWindowsMsg@0         004021ba f   Irvine32:Irvine32.obj
 0001:000026f0       _start@0@0                 004036f0 f   main.obj
 0001:00002779       _CheckJumpKey@0            00403779 f   main.obj
 0001:000027a1       _Jump@0                    004037a1 f   main.obj
 0001:00002805       _CheckCollision@0          00403805 f   main.obj
 0001:00002860       _GameOver@0                00403860 f   main.obj
 0001:000028ab       _DrawBox@0                 004038ab f   main.obj
 0001:000029ab       _DrawCactus@0              004039ab f   main.obj
 0001:00002a76       _DrawScore@0               00403a76 f   main.obj
 0001:00002ab1       _DrawHighScore@0           00403ab1 f   main.obj
 0001:00002aec       _DrawBackground@0          00403aec f   main.obj
 0001:00002b06       _MoveCactus@0              00403b06 f   main.obj
 0001:00002b43       _WaitForRelease@0          00403b43 f   main.obj
 0001:00002b51       _FormatScore@0             00403b51 f   main.obj
 0001:00002c9f       _ExitProcess@4             00403c9f f   kernel32:KERNEL32.dll
 0001:00002ca5       _GetStdHandle@4            00403ca5 f   kernel32:KERNEL32.dll
 0001:00002cab       _Sleep@4                   00403cab f   kernel32:KERNEL32.dll
 0001:00002cb1       _WriteConsoleOutputCharacterA@20 00403cb1 f   kernel32:KERNEL32.dll
 0001:00002cb7       _WriteConsoleOutputAttribute@20 00403cb7 f   kernel32:KERNEL32.dll
 0001:00002cbd       _SetConsoleOutputCP@4      00403cbd f   kernel32:KERNEL32.dll
 0001:00002cc3       _CloseHandle@4             00403cc3 f   kernel32:KERNEL32.dll
 0001:00002cc9       _CreateFileA@28            00403cc9 f   kernel32:KERNEL32.dll
 0001:00002ccf       _FormatMessageA@28         00403ccf f   kernel32:KERNEL32.dll
 0001:00002cd5       _FlushConsoleInputBuffer@4 00403cd5 f   kernel32:KERNEL32.dll
 0001:00002cdb       _GetCommandLineA@0         00403cdb f   kernel32:KERNEL32.dll
 0001:00002ce1       _GetConsoleMode@8          00403ce1 f   kernel32:KERNEL32.dll
 0001:00002ce7       _GetConsoleScreenBufferInfo@8 00403ce7 f   kernel32:KERNEL32.dll
 0001:00002ced       _GetLastError@0            00403ced f   kernel32:KERNEL32.dll
 0001:00002cf3       _GetLocalTime@4            00403cf3 f   kernel32:KERNEL32.dll
 0001:00002cf9       _GetSystemTime@4           00403cf9 f   kernel32:KERNEL32.dll
 0001:00002cff       _LocalFree@4               00403cff f   kernel32:KERNEL32.dll
 0001:00002d05       _PeekConsoleInputA@16      00403d05 f   kernel32:KERNEL32.dll
 0001:00002d0b       _ReadConsoleA@20           00403d0b f   kernel32:KERNEL32.dll
 0001:00002d11       _ReadConsoleInputA@16      00403d11 f   kernel32:KERNEL32.dll
 0001:00002d17       _ReadFile@20               00403d17 f   kernel32:KERNEL32.dll
 0001:00002d1d       _SetConsoleCursorPosition@8 00403d1d f   kernel32:KERNEL32.dll
 0001:00002d23       _SetConsoleMode@8          00403d23 f   kernel32:KERNEL32.dll
 0001:00002d29       _SetConsoleTextAttribute@8 00403d29 f   kernel32:KERNEL32.dll
 0001:00002d2f       _SystemTimeToFileTime@8    00403d2f f   kernel32:KERNEL32.dll
 0001:00002d35       _WriteConsoleA@20          00403d35 f   kernel32:KERNEL32.dll
 0001:00002d3b       _WriteFile@20              00403d3b f   kernel32:KERNEL32.dll
 0001:00002d41       _GetAsyncKeyState@4        00403d41 f   user32:USER32.dll
 0001:00002d47       _MessageBoxA@16            00403d47 f   user32:USER32.dll
 0004:00000000       __imp__ExitProcess@4       00407000     kernel32:KERNEL32.dll
 0004:00000004       __imp__GetStdHandle@4      00407004     kernel32:KERNEL32.dll
 0004:00000008       __imp__Sleep@4             00407008     kernel32:KERNEL32.dll
 0004:0000000c       __imp__WriteConsoleOutputCharacterA@20 0040700c     kernel32:KERNEL32.dll
 0004:00000010       __imp__WriteConsoleOutputAttribute@20 00407010     kernel32:KERNEL32.dll
 0004:00000014       __imp__SetConsoleOutputCP@4 00407014     kernel32:KERNEL32.dll
 0004:00000018       __imp__CloseHandle@4       00407018     kernel32:KERNEL32.dll
 0004:0000001c       __imp__CreateFileA@28      0040701c     kernel32:KERNEL32.dll
 0004:00000020       __imp__FormatMessageA@28   00407020     kernel32:KERNEL32.dll
 0004:00000024       __imp__FlushConsoleInputBuffer@4 00407024     kernel32:KERNEL32.dll
 0004:00000028       __imp__GetCommandLineA@0   00407028     kernel32:KERNEL32.dll
 0004:0000002c       __imp__GetConsoleMode@8    0040702c     kernel32:KERNEL32.dll
 0004:00000030       __imp__GetConsoleScreenBufferInfo@8 00407030     kernel32:KERNEL32.dll
 0004:00000034       __imp__GetLastError@0      00407034     kernel32:KERNEL32.dll
 0004:00000038       __imp__GetLocalTime@4      00407038     kernel32:KERNEL32.dll
 0004:0000003c       __imp__GetSystemTime@4     0040703c     kernel32:KERNEL32.dll
 0004:00000040       __imp__LocalFree@4         00407040     kernel32:KERNEL32.dll
 0004:00000044       __imp__PeekConsoleInputA@16 00407044     kernel32:KERNEL32.dll
 0004:00000048       __imp__ReadConsoleA@20     00407048     kernel32:KERNEL32.dll
 0004:0000004c       __imp__ReadConsoleInputA@16 0040704c     kernel32:KERNEL32.dll
 0004:00000050       __imp__ReadFile@20         00407050     kernel32:KERNEL32.dll
 0004:00000054       __imp__SetConsoleCursorPosition@8 00407054     kernel32:KERNEL32.dll
 0004:00000058       __imp__SetConsoleMode@8    00407058     kernel32:KERNEL32.dll
 0004:0000005c       __imp__SetConsoleTextAttribute@8 0040705c     kernel32:KERNEL32.dll
 0004:00000060       __imp__SystemTimeToFileTime@8 00407060     kernel32:KERNEL32.dll
 0004:00000064       __imp__WriteConsoleA@20    00407064     kernel32:KERNEL32.dll
 0004:00000068       __imp__WriteFile@20        00407068     kernel32:KERNEL32.dll
 0004:0000006c       \177KERNEL32_NULL_THUNK_DATA 0040706c     kernel32:KERNEL32.dll
 0004:000000ac       __imp__MessageBoxA@16      004070ac     user32:USER32.dll
 0004:000000b0       __imp__GetAsyncKeyState@4  004070b0     user32:USER32.dll
 0004:000000b4       \177USER32_NULL_THUNK_DATA 004070b4     user32:USER32.dll
 0004:000000e0       __IMPORT_DESCRIPTOR_KERNEL32 004070e0     kernel32:KERNEL32.dll
 0004:000000f4       __IMPORT_DESCRIPTOR_USER32 004070f4     user32:USER32.dll
 0004:00000108       __NULL_IMPORT_DESCRIPTOR   00407108     kernel32:KERNEL32.dll

 entry point at        0001:000000a0

 Static symbols

 0000:ffff6000       .debug$S                   00400000     kernel32:KERNEL32.dll
 0000:ffff6000       .debug$S                   00400000     kernel32:KERNEL32.dll
 0000:ffff6000       .debug$S                   00400000     kernel32:KERNEL32.dll
 0000:ffff6000       .debug$S                   00400000     kernel32:KERNEL32.dll
 0000:ffff6000       .debug$S                   00400000     kernel32:KERNEL32.dll
 0000:ffff6000       .debug$S                   00400000     kernel32:KERNEL32.dll
 0000:ffff6000       .debug$S                   00400000     kernel32:KERNEL32.dll
 0000:ffff6000       .debug$S                   00400000     kernel32:KERNEL32.dll
 0000:ffff6000       .debug$S                   00400000     kernel32:KERNEL32.dll
 0000:ffff6000       .debug$S                   00400000     kernel32:KERNEL32.dll
 0000:ffff6000       .debug$S                   00400000     kernel32:KERNEL32.dll
 0000:ffff6000       .debug$S                   00400000     kernel32:KERNEL32.dll
 0000:ffff6000       .debug$S                   00400000     kernel32:KERNEL32.dll
 0000:ffff6000       .debug$S                   00400000     kernel32:KERNEL32.dll
 0000:ffff6000       .debug$S                   00400000     kernel32:KERNEL32.dll
 0000:ffff6000       .debug$S                   00400000     kernel32:KERNEL32.dll
 0000:ffff6000       .debug$S                   00400000     kernel32:KERNEL32.dll
 0000:ffff6000       .debug$S                   00400000     kernel32:KERNEL32.dll
 0000:ffff6000       .debug$S                   00400000     kernel32:KERNEL32.dll
 0000:ffff6000       .debug$S                   00400000     kernel32:KERNEL32.dll
 0000:ffff6000       .debug$S                   00400000     kernel32:KERNEL32.dll
 0000:ffff6000       .debug$S                   00400000     kernel32:KERNEL32.dll
 0000:ffff6000       .debug$S                   00400000     kernel32:KERNEL32.dll
 0000:ffff6000       .debug$S                   00400000     kernel32:KERNEL32.dll
 0000:ffff6000       .debug$S                   00400000     kernel32:KERNEL32.dll
 0000:ffff6000       .debug$S                   00400000     kernel32:KERNEL32.dll
 0000:ffff6000       .debug$S                   00400000     kernel32:KERNEL32.dll
 0000:ffff6000       .debug$S                   00400000     user32:USER32.dll
 0000:ffff6000       .debug$S                   00400000     user32:USER32.dll
 0001:00000674       _scan_for_quote@0          00401674 f   Irvine32:Irvine32.obj
 0001:0000079b       _Initialize@0              0040179b f   Irvine32:Irvine32.obj
 0001:00000b9f       _ReadKeyTranslate@0        00401b9f f   Irvine32:Irvine32.obj
 0001:00001215       _AsciiDigit@0              00402215 f   Irvine32:Irvine32.obj
 0001:0000121e       _HexByte@0                 0040221e f   Irvine32:Irvine32.obj
 0001:000026f0       $$000000                   004036f0     main.obj
 0003:00000000       floor                      00406000     main.obj
 0003:0000002a       floorFix                   0040602a     main.obj
 0003:0000002b       boxTop                     0040602b     main.obj
 0003:0000002e       boxBody                    0040602e     main.obj
 0003:00000031       boxBottom                  00406031     main.obj
 0003:00000034       cactusTop                  00406034     main.obj
 0003:00000039       cactusMiddle               00406039     main.obj
 0003:0000003f       cactusBottom               0040603f     main.obj
 0003:00000041       cactus_pos                 00406041     main.obj
 0003:00000045       cactus_height              00406045     main.obj
 0003:00000049       cactus                     00406049     main.obj
 0003:0000004b       cactus_speed               0040604b     main.obj
 0003:0000004f       outputHandle               0040604f     main.obj
 0003:00000053       bytesWritten               00406053     main.obj
 0003:00000057       count                      00406057     main.obj
 0003:0000005b       highscore_pos              0040605b     main.obj
 0003:0000005f       score_pos                  0040605f     main.obj
 0003:00000063       floor_pos                  00406063     main.obj
 0003:00000067       xyPosition                 00406067     main.obj
 0003:0000006b       xyBound                    0040606b     main.obj
 0003:0000006f       cellsWritten               0040606f     main.obj
 0003:00000073       attributes_floor           00406073     main.obj
 0003:000000c7       attributes0                004060c7     main.obj
 0003:000000cd       attributes1                004060cd     main.obj
 0003:000000d3       attributes2                004060d3     main.obj
 0003:000000d9       velocity                   004060d9     main.obj
 0003:000000db       gravity                    004060db     main.obj
 0003:000000dd       keyState                   004060dd     main.obj
 0003:000000e1       score                      004060e1     main.obj
 0003:000000e5       highscore                  004060e5     main.obj
 0003:000000e9       scoreString                004060e9     main.obj
 0003:000000f5       highscoreString            004060f5     main.obj
 0003:00000106       gameOverMessage            00406106     main.obj
 0003:00000150       InitFlag                   00406150     Irvine32:Irvine32.obj
 0003:00000151       xtable                     00406151     Irvine32:Irvine32.obj
 0003:00000161       blanks                     00406161     Irvine32:Irvine32.obj
 0003:00000361       attribs                    00406361     Irvine32:Irvine32.obj
 0003:00000761       lineLength                 00406761     Irvine32:Irvine32.obj
 0003:00000765       cursorLoc                  00406765     Irvine32:Irvine32.obj
 0003:00000769       count                      00406769     Irvine32:Irvine32.obj
 0003:0000076d       ??0002                     0040676d     Irvine32:Irvine32.obj
 0003:00000772       dumpPrompt                 00406772     Irvine32:Irvine32.obj
 0003:00000784       dashLine                   00406784     Irvine32:Irvine32.obj
 0003:000007a6       ??0003                     004067a6     Irvine32:Irvine32.obj
 0003:000007a9       ??0004                     004067a9     Irvine32:Irvine32.obj
 0003:000007ab       ??0005                     004067ab     Irvine32:Irvine32.obj
 0003:000007ad       saveIP                     004067ad     Irvine32:Irvine32.obj
 0003:000007b1       saveESP                    004067b1     Irvine32:Irvine32.obj
 0003:000007b5       ??0006                     004067b5     Irvine32:Irvine32.obj
 0003:000007bc       ??0007                     004067bc     Irvine32:Irvine32.obj
 0003:000007c3       ??0008                     004067c3     Irvine32:Irvine32.obj
 0003:000007ca       ??0009                     004067ca     Irvine32:Irvine32.obj
 0003:000007d1       ??000A                     004067d1     Irvine32:Irvine32.obj
 0003:000007d8       ??000B                     004067d8     Irvine32:Irvine32.obj
 0003:000007df       ??000C                     004067df     Irvine32:Irvine32.obj
 0003:000007e6       ??000D                     004067e6     Irvine32:Irvine32.obj
 0003:000007ed       ??000E                     004067ed     Irvine32:Irvine32.obj
 0003:000007f4       ??000F                     004067f4     Irvine32:Irvine32.obj
 0003:000007fb       ??0010                     004067fb     Irvine32:Irvine32.obj
 0003:00000800       ??0011                     00406800     Irvine32:Irvine32.obj
 0003:00000802       ??0013                     00406802     Irvine32:Irvine32.obj
 0003:00000807       ??0014                     00406807     Irvine32:Irvine32.obj
 0003:00000809       ??0016                     00406809     Irvine32:Irvine32.obj
 0003:0000080e       ??0017                     0040680e     Irvine32:Irvine32.obj
 0003:00000810       ??0019                     00406810     Irvine32:Irvine32.obj
 0003:00000815       ??001A                     00406815     Irvine32:Irvine32.obj
 0003:00000817       ??001C                     00406817     Irvine32:Irvine32.obj
 0003:0000081c       ??001D                     0040681c     Irvine32:Irvine32.obj
 0003:0000081e       ??001F                     0040681e     Irvine32:Irvine32.obj
 0003:00000823       ??0020                     00406823     Irvine32:Irvine32.obj
 0003:00000825       _cursorPosition            00406825     Irvine32:Irvine32.obj
 0003:00000829       @zx02abc_def_caption       00406829     Irvine32:Irvine32.obj
 0003:0000082b       @zq02abc_def_caption       0040682b     Irvine32:Irvine32.obj
 0003:0000082d       overflow_msgL              0040682d     Irvine32:Irvine32.obj
 0003:00000848       invalid_msgL               00406848     Irvine32:Irvine32.obj
 0003:0000085b       seed                       0040685b     Irvine32:Irvine32.obj
 0003:0000085f       xbtable                    0040685f     Irvine32:Irvine32.obj
 0003:00000876       numVal                     00406876     Irvine32:Irvine32.obj
 0003:0000087a       charVal                    0040687a     Irvine32:Irvine32.obj
 0003:0000087b       evBuffer                   0040687b     Irvine32:Irvine32.obj
 0003:0000088f       evRepeat                   0040688f     Irvine32:Irvine32.obj
 0003:00000891       SpecialCases               00406891     Irvine32:Irvine32.obj
 0003:000008d2       _$$temp                    004068d2     Irvine32:Irvine32.obj
 0003:000008d6       waitmsgstr                 004068d6     Irvine32:Irvine32.obj
 0003:000008f3       bufferL                    004068f3     Irvine32:Irvine32.obj
 0003:00000900       bufferLHB                  00406900     Irvine32:Irvine32.obj
 0003:00000909       buffer_B                   00406909     Irvine32:Irvine32.obj
 0003:00000916       neg_flag                   00406916     Irvine32:Irvine32.obj
 0003:00000917       LblStack                   00406917     Irvine32:Irvine32.obj
 0003:00000924       LblFor                     00406924     Irvine32:Irvine32.obj
 0003:00000929       LblEbp                     00406929     Irvine32:Irvine32.obj
 0003:0000092f       LblParam                   0040692f     Irvine32:Irvine32.obj
 0003:0000093c       LblEbpPtr                  0040693c     Irvine32:Irvine32.obj
 0003:00000952       LblSaved                   00406952     Irvine32:Irvine32.obj
 0003:00000964       LblLocal                   00406964     Irvine32:Irvine32.obj
 0003:00000976       LblReturn                  00406976     Irvine32:Irvine32.obj
 0003:00000988       LblEsp                     00406988     Irvine32:Irvine32.obj
 0003:00000994       BadStackFrameMsg           00406994     Irvine32:Irvine32.obj
 0003:000009af       NoName                     004069af     Irvine32:Irvine32.obj
 0003:000009b0       WriteToFile_1              004069b0     Irvine32:Irvine32.obj
 0003:000009b4       WriteWindowsMsg_1          004069b4     Irvine32:Irvine32.obj
 0003:000009bb       WriteWindowsMsg_2          004069bb     Irvine32:Irvine32.obj
 0003:000009be       pErrorMsg                  004069be     Irvine32:Irvine32.obj
 0003:000009c2       messageId                  004069c2     Irvine32:Irvine32.obj
 0003:00000c80       consoleInHandle            00406c80     Irvine32:Irvine32.obj
 0003:00000c84       consoleOutHandle           00406c84     Irvine32:Irvine32.obj
 0003:00000c88       bytesWritten               00406c88     Irvine32:Irvine32.obj
 0003:00000c8c       eflags                     00406c8c     Irvine32:Irvine32.obj
 0003:00000c90       digitBuffer                00406c90     Irvine32:Irvine32.obj
 0003:00000ce1       buffer                     00406ce1     Irvine32:Irvine32.obj
 0003:00000ee1       bytesRead                  00406ee1     Irvine32:Irvine32.obj
 0003:00000ee5       sysTime                    00406ee5     Irvine32:Irvine32.obj
 0004:000003fc       .idata$6                   004073fc     kernel32:KERNEL32.dll
 0004:0000042c       .idata$6                   0040742c     user32:USER32.dll
 0005:00000170       $R000000                   00408170     * linker generated manifest res *
